; ModuleID = 'source-C-CXX/54/958.cpp'
source_filename = "source-C-CXX/54/958.cpp"
target datalayout = "e-m:e-p270:32:32-p271:32:32-p272:64:64-i64:64-f80:128-n8:16:32:64-S128"
target triple = "x86_64-pc-linux-gnu"

%"class.std::ios_base::Init" = type { i8 }
%"class.std::basic_istream" = type { i32 (...)**, i64, %"class.std::basic_ios" }
%"class.std::basic_ios" = type { %"class.std::ios_base", %"class.std::basic_ostream"*, i8, i8, %"class.std::basic_streambuf"*, %"class.std::ctype"*, %"class.std::num_put"*, %"class.std::num_get"* }
%"class.std::ios_base" = type { i32 (...)**, i64, i64, i32, i32, i32, %"struct.std::ios_base::_Callback_list"*, %"struct.std::ios_base::_Words", [8 x %"struct.std::ios_base::_Words"], i32, %"struct.std::ios_base::_Words"*, %"class.std::locale" }
%"struct.std::ios_base::_Callback_list" = type { %"struct.std::ios_base::_Callback_list"*, void (i32, %"class.std::ios_base"*, i32)*, i32, i32 }
%"struct.std::ios_base::_Words" = type { i8*, i64 }
%"class.std::locale" = type { %"class.std::locale::_Impl"* }
%"class.std::locale::_Impl" = type { i32, %"class.std::locale::facet"**, i64, %"class.std::locale::facet"**, i8** }
%"class.std::locale::facet" = type <{ i32 (...)**, i32, [4 x i8] }>
%"class.std::basic_ostream" = type { i32 (...)**, %"class.std::basic_ios" }
%"class.std::basic_streambuf" = type { i32 (...)**, i8*, i8*, i8*, i8*, i8*, i8*, %"class.std::locale" }
%"class.std::ctype" = type <{ %"class.std::locale::facet.base", [4 x i8], %struct.__locale_struct*, i8, [7 x i8], i32*, i32*, i16*, i8, [256 x i8], [256 x i8], i8, [6 x i8] }>
%"class.std::locale::facet.base" = type <{ i32 (...)**, i32 }>
%struct.__locale_struct = type { [13 x %struct.__locale_data*], i16*, i32*, i32*, [13 x i8*] }
%struct.__locale_data = type opaque
%"class.std::num_put" = type { %"class.std::locale::facet.base", [4 x i8] }
%"class.std::num_get" = type { %"class.std::locale::facet.base", [4 x i8] }

@_ZStL8__ioinit = internal global %"class.std::ios_base::Init" zeroinitializer, align 1
@__dso_handle = external hidden global i8
@_ZSt3cin = external global %"class.std::basic_istream", align 8
@_ZSt4cout = external global %"class.std::basic_ostream", align 8
@llvm.global_ctors = appending global [1 x { i32, void ()*, i8* }] [{ i32, void ()*, i8* } { i32 65535, void ()* @_GLOBAL__sub_I_958.cpp, i8* null }]

declare void @_ZNSt8ios_base4InitC1Ev(%"class.std::ios_base::Init"* nonnull align 1 dereferenceable(1)) unnamed_addr #0

; Function Attrs: nounwind
declare void @_ZNSt8ios_base4InitD1Ev(%"class.std::ios_base::Init"* nonnull align 1 dereferenceable(1)) unnamed_addr #1

; Function Attrs: nofree nounwind
declare i32 @__cxa_atexit(void (i8*)*, i8*, i8*) local_unnamed_addr #2

; Function Attrs: mustprogress norecurse sspstrong uwtable
define dso_local i32 @main() local_unnamed_addr #3 {
  %1 = alloca i8, align 1
  %2 = alloca i32, align 4
  %3 = alloca i32, align 4
  %4 = alloca [31 x i8], align 16
  %5 = alloca [31 x i8], align 16
  %6 = bitcast i32* %2 to i8*
  call void @llvm.lifetime.start.p0i8(i64 4, i8* nonnull %6) #7
  %7 = bitcast i32* %3 to i8*
  call void @llvm.lifetime.start.p0i8(i64 4, i8* nonnull %7) #7
  %8 = getelementptr inbounds [31 x i8], [31 x i8]* %4, i64 0, i64 0
  call void @llvm.lifetime.start.p0i8(i64 31, i8* nonnull %8) #7
  %9 = getelementptr inbounds [31 x i8], [31 x i8]* %5, i64 0, i64 0
  call void @llvm.lifetime.start.p0i8(i64 31, i8* nonnull %9) #7
  %10 = call nonnull align 8 dereferenceable(16) %"class.std::basic_istream"* @_ZNSirsERi(%"class.std::basic_istream"* nonnull align 8 dereferenceable(16) @_ZSt3cin, i32* nonnull align 4 dereferenceable(4) %2)
  call void @_ZSt17__istream_extractRSiPcl(%"class.std::basic_istream"* nonnull align 8 dereferenceable(16) %10, i8* nonnull %8, i64 31)
  %11 = call nonnull align 8 dereferenceable(16) %"class.std::basic_istream"* @_ZNSirsERi(%"class.std::basic_istream"* nonnull align 8 dereferenceable(16) %10, i32* nonnull align 4 dereferenceable(4) %3)
  %12 = call i64 @strlen(i8* noundef nonnull %8) #8
  %13 = trunc i64 %12 to i32
  %14 = load i32, i32* %2, align 4
  %15 = icmp sgt i32 %13, 0
  br i1 %15, label %16, label %69

16:                                               ; preds = %0
  %17 = and i64 %12, 4294967295
  %18 = and i64 %12, 1
  %19 = icmp eq i64 %17, 1
  br i1 %19, label %50, label %20

20:                                               ; preds = %16
  %21 = sub nsw i64 %17, %18
  br label %22

22:                                               ; preds = %22, %20
  %23 = phi i64 [ 0, %20 ], [ %47, %22 ]
  %24 = phi i32 [ 0, %20 ], [ %46, %22 ]
  %25 = phi i64 [ %21, %20 ], [ %48, %22 ]
  %26 = getelementptr inbounds [31 x i8], [31 x i8]* %4, i64 0, i64 %23
  %27 = load i8, i8* %26, align 2, !tbaa !5
  %28 = icmp slt i8 %27, 58
  %29 = icmp sgt i8 %27, 96
  %30 = select i1 %29, i8 -87, i8 -55
  %31 = select i1 %28, i8 -48, i8 %30
  %32 = add i8 %27, %31
  store i8 %32, i8* %26, align 2, !tbaa !5
  %33 = mul nsw i32 %14, %24
  %34 = sext i8 %32 to i32
  %35 = add nsw i32 %33, %34
  %36 = or i64 %23, 1
  %37 = getelementptr inbounds [31 x i8], [31 x i8]* %4, i64 0, i64 %36
  %38 = load i8, i8* %37, align 1, !tbaa !5
  %39 = icmp slt i8 %38, 58
  %40 = icmp sgt i8 %38, 96
  %41 = select i1 %40, i8 -87, i8 -55
  %42 = select i1 %39, i8 -48, i8 %41
  %43 = add i8 %38, %42
  store i8 %43, i8* %37, align 1, !tbaa !5
  %44 = mul nsw i32 %14, %35
  %45 = sext i8 %43 to i32
  %46 = add nsw i32 %44, %45
  %47 = add nuw nsw i64 %23, 2
  %48 = add i64 %25, -2
  %49 = icmp eq i64 %48, 0
  br i1 %49, label %50, label %22, !llvm.loop !8

50:                                               ; preds = %22, %16
  %51 = phi i32 [ undef, %16 ], [ %46, %22 ]
  %52 = phi i64 [ 0, %16 ], [ %47, %22 ]
  %53 = phi i32 [ 0, %16 ], [ %46, %22 ]
  %54 = icmp eq i64 %18, 0
  br i1 %54, label %66, label %55

55:                                               ; preds = %50
  %56 = getelementptr inbounds [31 x i8], [31 x i8]* %4, i64 0, i64 %52
  %57 = load i8, i8* %56, align 1, !tbaa !5
  %58 = icmp slt i8 %57, 58
  %59 = icmp sgt i8 %57, 96
  %60 = select i1 %59, i8 -87, i8 -55
  %61 = select i1 %58, i8 -48, i8 %60
  %62 = add i8 %57, %61
  store i8 %62, i8* %56, align 1, !tbaa !5
  %63 = mul nsw i32 %14, %53
  %64 = sext i8 %62 to i32
  %65 = add nsw i32 %63, %64
  br label %66

66:                                               ; preds = %50, %55
  %67 = phi i32 [ %51, %50 ], [ %65, %55 ]
  %68 = icmp eq i32 %67, 0
  br i1 %68, label %69, label %71

69:                                               ; preds = %0, %66
  %70 = call nonnull align 8 dereferenceable(8) %"class.std::basic_ostream"* @_ZNSolsEi(%"class.std::basic_ostream"* nonnull align 8 dereferenceable(8) @_ZSt4cout, i32 0)
  br label %101

71:                                               ; preds = %66
  %72 = load i32, i32* %3, align 4
  br label %78

73:                                               ; preds = %78
  %74 = trunc i64 %89 to i32
  %75 = icmp sgt i32 %74, 0
  br i1 %75, label %76, label %101

76:                                               ; preds = %73
  %77 = and i64 %89, 4294967295
  br label %91

78:                                               ; preds = %71, %78
  %79 = phi i64 [ 0, %71 ], [ %89, %78 ]
  %80 = phi i32 [ %67, %71 ], [ %88, %78 ]
  %81 = srem i32 %80, %72
  %82 = trunc i32 %81 to i8
  %83 = add i8 %82, 48
  %84 = getelementptr inbounds [31 x i8], [31 x i8]* %5, i64 0, i64 %79
  %85 = icmp sgt i8 %83, 57
  %86 = add i8 %82, 55
  %87 = select i1 %85, i8 %86, i8 %83
  store i8 %87, i8* %84, align 1, !tbaa !5
  %88 = sdiv i32 %80, %72
  %89 = add nuw i64 %79, 1
  %90 = icmp eq i32 %88, 0
  br i1 %90, label %73, label %78, !llvm.loop !10

91:                                               ; preds = %76, %91
  %92 = phi i64 [ %77, %76 ], [ %100, %91 ]
  %93 = phi i32 [ %74, %76 ], [ %94, %91 ]
  %94 = add nsw i32 %93, -1
  %95 = zext i32 %94 to i64
  %96 = getelementptr inbounds [31 x i8], [31 x i8]* %5, i64 0, i64 %95
  %97 = load i8, i8* %96, align 1, !tbaa !5
  call void @llvm.lifetime.start.p0i8(i64 1, i8* nonnull %1)
  store i8 %97, i8* %1, align 1, !tbaa !5
  %98 = call nonnull align 8 dereferenceable(8) %"class.std::basic_ostream"* @_ZSt16__ostream_insertIcSt11char_traitsIcEERSt13basic_ostreamIT_T0_ES6_PKS3_l(%"class.std::basic_ostream"* nonnull align 8 dereferenceable(8) @_ZSt4cout, i8* nonnull %1, i64 1)
  call void @llvm.lifetime.end.p0i8(i64 1, i8* nonnull %1)
  %99 = icmp sgt i64 %92, 1
  %100 = add nsw i64 %92, -1
  br i1 %99, label %91, label %101, !llvm.loop !11

101:                                              ; preds = %91, %69, %73
  call void @llvm.lifetime.end.p0i8(i64 31, i8* nonnull %9) #7
  call void @llvm.lifetime.end.p0i8(i64 31, i8* nonnull %8) #7
  call void @llvm.lifetime.end.p0i8(i64 4, i8* nonnull %7) #7
  call void @llvm.lifetime.end.p0i8(i64 4, i8* nonnull %6) #7
  ret i32 0
}

; Function Attrs: argmemonly mustprogress nofree nosync nounwind willreturn
declare void @llvm.lifetime.start.p0i8(i64 immarg, i8* nocapture) #4

declare nonnull align 8 dereferenceable(16) %"class.std::basic_istream"* @_ZNSirsERi(%"class.std::basic_istream"* nonnull align 8 dereferenceable(16), i32* nonnull align 4 dereferenceable(4)) local_unnamed_addr #0

; Function Attrs: argmemonly mustprogress nofree nounwind readonly willreturn
declare i64 @strlen(i8* nocapture) local_unnamed_addr #5

declare nonnull align 8 dereferenceable(8) %"class.std::basic_ostream"* @_ZNSolsEi(%"class.std::basic_ostream"* nonnull align 8 dereferenceable(8), i32) local_unnamed_addr #0

; Function Attrs: argmemonly mustprogress nofree nosync nounwind willreturn
declare void @llvm.lifetime.end.p0i8(i64 immarg, i8* nocapture) #4

declare void @_ZSt17__istream_extractRSiPcl(%"class.std::basic_istream"* nonnull align 8 dereferenceable(16), i8*, i64) local_unnamed_addr #0

declare nonnull align 8 dereferenceable(8) %"class.std::basic_ostream"* @_ZSt16__ostream_insertIcSt11char_traitsIcEERSt13basic_ostreamIT_T0_ES6_PKS3_l(%"class.std::basic_ostream"* nonnull align 8 dereferenceable(8), i8*, i64) local_unnamed_addr #0

; Function Attrs: sspstrong uwtable
define internal void @_GLOBAL__sub_I_958.cpp() #6 section ".text.startup" {
  tail call void @_ZNSt8ios_base4InitC1Ev(%"class.std::ios_base::Init"* nonnull align 1 dereferenceable(1) @_ZStL8__ioinit)
  %1 = tail call i32 @__cxa_atexit(void (i8*)* bitcast (void (%"class.std::ios_base::Init"*)* @_ZNSt8ios_base4InitD1Ev to void (i8*)*), i8* getelementptr inbounds (%"class.std::ios_base::Init", %"class.std::ios_base::Init"* @_ZStL8__ioinit, i64 0, i32 0), i8* nonnull @__dso_handle) #7
  ret void
}


!llvm.module.flags = !{!0, !1, !2, !3}
!llvm.ident = !{!4}

!0 = !{i32 1, !"wchar_size", i32 4}
!1 = !{i32 7, !"PIC Level", i32 2}
!2 = !{i32 7, !"PIE Level", i32 2}
!3 = !{i32 7, !"uwtable", i32 1}
!4 = !{!"clang version 13.0.0"}
!5 = !{!6, !6, i64 0}
!6 = !{!"omnipotent char", !7, i64 0}
!7 = !{!"Simple C++ TBAA"}
!8 = distinct !{!8, !9}
!9 = !{!"llvm.loop.mustprogress"}
!10 = distinct !{!10, !9}
!11 = distinct !{!11, !9}
